; Function Attrs: mustprogress uwtable
define noundef double @_ZN8QuantLib11AlphaFinder17computeLinearPartEd(ptr nocapture noundef nonnull readonly align 8 dereferenceable(176) %this, double noundef %alpha) local_unnamed_addr #1 align 2 {
entry:
  %0 = load ptr, ptr %this, align 8, !tbaa !3
  %cmp.not.i = icmp eq ptr %0, null
  br i1 %cmp.not.i, label %cond.false.i, label %_ZNK5boost10shared_ptrIN8QuantLib9AlphaFormEEptEv.exit, !prof !10

cond.false.i:                                     ; preds = %entry
  tail call void @_ZN5boost16assertion_failedEPKcS1_S1_l(ptr noundef nonnull @.str, ptr noundef nonnull @__PRETTY_FUNCTION__._ZNK5boost10shared_ptrIN8QuantLib9AlphaFormEEptEv, ptr noundef nonnull @.str.1, i64 noundef 784)
  %.pre.i = load ptr, ptr %this, align 8, !tbaa !3
  br label %_ZNK5boost10shared_ptrIN8QuantLib9AlphaFormEEptEv.exit

_ZNK5boost10shared_ptrIN8QuantLib9AlphaFormEEptEv.exit: ; preds = %entry, %cond.false.i
  %1 = phi ptr [ %0, %entry ], [ %.pre.i, %cond.false.i ]
  %vtable = load ptr, ptr %1, align 8, !tbaa !11
  %vfn = getelementptr inbounds i8, ptr %vtable, i64 24
  %2 = load ptr, ptr %vfn, align 8
  tail call void %2(ptr noundef nonnull align 8 dereferenceable(8) %1, double noundef %alpha)
  %stepindex_ = getelementptr inbounds nuw i8, ptr %this, i64 16
  %3 = load i32, ptr %stepindex_, align 8, !tbaa !13
  %cmp.not13 = icmp slt i32 %3, 0
  br i1 %cmp.not13, label %for.cond.cleanup, label %for.body.lr.ph

for.body.lr.ph:                                   ; preds = %_ZNK5boost10shared_ptrIN8QuantLib9AlphaFormEEptEv.exit
  %ratetwohomogeneousvols_ = getelementptr inbounds nuw i8, ptr %this, i64 48
  %rateonevols_ = getelementptr inbounds nuw i8, ptr %this, i64 24
  %correlations_ = getelementptr inbounds nuw i8, ptr %this, i64 96
  br label %for.body

for.cond.cleanup:                                 ; preds = %_ZNK5boost10shared_ptrIN8QuantLib9AlphaFormEEdeEv.exit, %_ZNK5boost10shared_ptrIN8QuantLib9AlphaFormEEptEv.exit
  %cov.0.lcssa = phi double [ 0.000000e+00, %_ZNK5boost10shared_ptrIN8QuantLib9AlphaFormEEptEv.exit ], [ %16, %_ZNK5boost10shared_ptrIN8QuantLib9AlphaFormEEdeEv.exit ]
  %w0_ = getelementptr inbounds nuw i8, ptr %this, i64 120
  %4 = load double, ptr %w0_, align 8, !tbaa !21
  %mul14 = fmul double %4, 2.000000e+00
  %w1_ = getelementptr inbounds nuw i8, ptr %this, i64 128
  %5 = load double, ptr %w1_, align 8, !tbaa !22
  %mul15 = fmul double %mul14, %5
  %mul16 = fmul double %cov.0.lcssa, %mul15
  ret double %mul16

for.body:                                         ; preds = %for.body.lr.ph, %_ZNK5boost10shared_ptrIN8QuantLib9AlphaFormEEdeEv.exit
  %indvars.iv = phi i64 [ 0, %for.body.lr.ph ], [ %indvars.iv.next, %_ZNK5boost10shared_ptrIN8QuantLib9AlphaFormEEdeEv.exit ]
  %cov.015 = phi double [ 0.000000e+00, %for.body.lr.ph ], [ %16, %_ZNK5boost10shared_ptrIN8QuantLib9AlphaFormEEdeEv.exit ]
  %6 = load ptr, ptr %ratetwohomogeneousvols_, align 8, !tbaa !23
  %add.ptr.i = getelementptr inbounds nuw double, ptr %6, i64 %indvars.iv
  %7 = load double, ptr %add.ptr.i, align 8, !tbaa !24
  %8 = load ptr, ptr %this, align 8, !tbaa !3
  %cmp.not.i8 = icmp eq ptr %8, null
  br i1 %cmp.not.i8, label %cond.false.i9, label %_ZNK5boost10shared_ptrIN8QuantLib9AlphaFormEEdeEv.exit, !prof !10

cond.false.i9:                                    ; preds = %for.body
  tail call void @_ZN5boost16assertion_failedEPKcS1_S1_l(ptr noundef nonnull @.str, ptr noundef nonnull @__PRETTY_FUNCTION__._ZNK5boost10shared_ptrIN8QuantLib9AlphaFormEEdeEv, ptr noundef nonnull @.str.1, i64 noundef 778)
  %.pre.i10 = load ptr, ptr %this, align 8, !tbaa !3
  br label %_ZNK5boost10shared_ptrIN8QuantLib9AlphaFormEEdeEv.exit

_ZNK5boost10shared_ptrIN8QuantLib9AlphaFormEEdeEv.exit: ; preds = %for.body, %cond.false.i9
  %9 = phi ptr [ %8, %for.body ], [ %.pre.i10, %cond.false.i9 ]
  %vtable5 = load ptr, ptr %9, align 8, !tbaa !11
  %vfn6 = getelementptr inbounds i8, ptr %vtable5, i64 16
  %10 = load ptr, ptr %vfn6, align 8
  %11 = trunc nuw nsw i64 %indvars.iv to i32
  %call7 = tail call noundef double %10(ptr noundef nonnull align 8 dereferenceable(8) %9, i32 noundef %11)
  %mul = fmul double %7, %call7
  %12 = load ptr, ptr %rateonevols_, align 8, !tbaa !23
  %add.ptr.i11 = getelementptr inbounds nuw double, ptr %12, i64 %indvars.iv
  %13 = load double, ptr %add.ptr.i11, align 8, !tbaa !24
  %mul10 = fmul double %mul, %13
  %14 = load ptr, ptr %correlations_, align 8, !tbaa !23
  %add.ptr.i12 = getelementptr inbounds nuw double, ptr %14, i64 %indvars.iv
  %15 = load double, ptr %add.ptr.i12, align 8, !tbaa !24
  %16 = tail call double @llvm.fmuladd.f64(double %mul10, double %15, double %cov.015)
  %indvars.iv.next = add nuw nsw i64 %indvars.iv, 1
  %17 = load i32, ptr %stepindex_, align 8, !tbaa !13
  %18 = sext i32 %17 to i64
  %cmp.not.not = icmp slt i64 %indvars.iv, %18
  br i1 %cmp.not.not, label %for.body, label %for.cond.cleanup, !llvm.loop !25
}